target datalayout = "e-m:e-p270:32:32-p271:32:32-p272:64:64-i64:64-i128:128-f80:128-n8:16:32:64-S128"
target triple = "x86_64-pc-linux-gnu"

%struct.ident_t = type { i32, i32, i32, i32, ptr }
%"class.LightGBM::Tree" = type { ptr, i32, i32, %"class.std::vector", %"class.std::vector", %"class.std::vector", %"class.std::vector", %"class.std::vector.0", %"class.std::vector.5", i32, %"class.std::vector", %"class.std::vector.0", %"class.std::vector", %"class.std::vector.0", %"class.std::vector.10", %"class.std::vector.15", %"class.std::vector", %"class.std::vector.5", %"class.std::vector.5", %"class.std::vector", %"class.std::vector.5", %"class.std::vector.5", %"class.std::vector", %"class.std::vector", i8, %"class.std::vector.20", double, i32, i8, %"class.std::vector.25", %"class.std::vector.5", %"class.std::vector.20", %"class.std::vector.20" }
%"class.std::vector.0" = type { %"struct.std::_Vector_base.1" }
%"struct.std::_Vector_base.1" = type { %"struct.std::_Vector_base<unsigned int, std::allocator<unsigned int>>::_Vector_impl" }
%"struct.std::_Vector_base<unsigned int, std::allocator<unsigned int>>::_Vector_impl" = type { %"struct.std::_Vector_base<unsigned int, std::allocator<unsigned int>>::_Vector_impl_data" }
%"struct.std::_Vector_base<unsigned int, std::allocator<unsigned int>>::_Vector_impl_data" = type { ptr, ptr, ptr }
%"class.std::vector.10" = type { %"struct.std::_Vector_base.11" }
%"struct.std::_Vector_base.11" = type { %"struct.std::_Vector_base<signed char, std::allocator<signed char>>::_Vector_impl" }
%"struct.std::_Vector_base<signed char, std::allocator<signed char>>::_Vector_impl" = type { %"struct.std::_Vector_base<signed char, std::allocator<signed char>>::_Vector_impl_data" }
%"struct.std::_Vector_base<signed char, std::allocator<signed char>>::_Vector_impl_data" = type { ptr, ptr, ptr }
%"class.std::vector.15" = type { %"struct.std::_Vector_base.16" }
%"struct.std::_Vector_base.16" = type { %"struct.std::_Vector_base<float, std::allocator<float>>::_Vector_impl" }
%"struct.std::_Vector_base<float, std::allocator<float>>::_Vector_impl" = type { %"struct.std::_Vector_base<float, std::allocator<float>>::_Vector_impl_data" }
%"struct.std::_Vector_base<float, std::allocator<float>>::_Vector_impl_data" = type { ptr, ptr, ptr }
%"class.std::vector" = type { %"struct.std::_Vector_base" }
%"struct.std::_Vector_base" = type { %"struct.std::_Vector_base<int, std::allocator<int>>::_Vector_impl" }
%"struct.std::_Vector_base<int, std::allocator<int>>::_Vector_impl" = type { %"struct.std::_Vector_base<int, std::allocator<int>>::_Vector_impl_data" }
%"struct.std::_Vector_base<int, std::allocator<int>>::_Vector_impl_data" = type { ptr, ptr, ptr }
%"class.std::vector.25" = type { %"struct.std::_Vector_base.26" }
%"struct.std::_Vector_base.26" = type { %"struct.std::_Vector_base<std::vector<double>, std::allocator<std::vector<double>>>::_Vector_impl" }
%"struct.std::_Vector_base<std::vector<double>, std::allocator<std::vector<double>>>::_Vector_impl" = type { %"struct.std::_Vector_base<std::vector<double>, std::allocator<std::vector<double>>>::_Vector_impl_data" }
%"struct.std::_Vector_base<std::vector<double>, std::allocator<std::vector<double>>>::_Vector_impl_data" = type { ptr, ptr, ptr }
%"class.std::vector.5" = type { %"struct.std::_Vector_base.6" }
%"struct.std::_Vector_base.6" = type { %"struct.std::_Vector_base<double, std::allocator<double>>::_Vector_impl" }
%"struct.std::_Vector_base<double, std::allocator<double>>::_Vector_impl" = type { %"struct.std::_Vector_base<double, std::allocator<double>>::_Vector_impl_data" }
%"struct.std::_Vector_base<double, std::allocator<double>>::_Vector_impl_data" = type { ptr, ptr, ptr }
%"class.std::vector.20" = type { %"struct.std::_Vector_base.21" }
%"struct.std::_Vector_base.21" = type { %"struct.std::_Vector_base<std::vector<int>, std::allocator<std::vector<int>>>::_Vector_impl" }
%"struct.std::_Vector_base<std::vector<int>, std::allocator<std::vector<int>>>::_Vector_impl" = type { %"struct.std::_Vector_base<std::vector<int>, std::allocator<std::vector<int>>>::_Vector_impl_data" }
%"struct.std::_Vector_base<std::vector<int>, std::allocator<std::vector<int>>>::_Vector_impl_data" = type { ptr, ptr, ptr }

@1 = private unnamed_addr constant %struct.ident_t { i32 0, i32 514, i32 0, i32 22, ptr @0 }, align 8

; Function Attrs: inlinehint mustprogress nounwind uwtable
define linkonce_odr noundef zeroext i1 @_ZN8LightGBM4Tree6IsZeroEd(double noundef %0) #3 comdat align 2 {
  %2 = alloca double, align 8
  store double %0, ptr %2, align 8, !tbaa !57
  %3 = load double, ptr %2, align 8, !tbaa !57
  %4 = fcmp oge double %3, 0xB8AA95A5C0000000
  br i1 %4, label %5, label %8

5:                                                ; preds = %1
  %6 = load double, ptr %2, align 8, !tbaa !57
  %7 = fcmp ole double %6, 0x38AA95A5C0000000
  br label %8

8:                                                ; preds = %5, %1
  %9 = phi i1 [ false, %1 ], [ %7, %5 ]
  ret i1 %9
}

; Function Attrs: inlinehint mustprogress nounwind uwtable
define linkonce_odr noundef double @_ZN8LightGBM4Tree16MaybeRoundToZeroEd(double noundef %0) #3 comdat align 2 {
  %2 = alloca double, align 8
  store double %0, ptr %2, align 8, !tbaa !57
  %3 = load double, ptr %2, align 8, !tbaa !57
  %4 = call noundef zeroext i1 @_ZN8LightGBM4Tree6IsZeroEd(double noundef %3)
  br i1 %4, label %5, label %6

5:                                                ; preds = %1
  br label %8

6:                                                ; preds = %1
  %7 = load double, ptr %2, align 8, !tbaa !57
  br label %8

8:                                                ; preds = %6, %5
  %9 = phi double [ 0.000000e+00, %5 ], [ %7, %6 ]
  ret double %9
}

; Function Attrs: mustprogress nounwind uwtable
define linkonce_odr noundef nonnull align 8 dereferenceable(8) ptr @_ZNSt6vectorIdSaIdEEixEm(ptr noundef nonnull align 8 dereferenceable(24) %0, i64 noundef %1) #0 comdat align 2 {
  %3 = alloca ptr, align 8
  %4 = alloca i64, align 8
  store ptr %0, ptr %3, align 8, !tbaa !141
  store i64 %1, ptr %4, align 8, !tbaa !132
  %5 = load ptr, ptr %3, align 8
  %6 = getelementptr inbounds nuw %"struct.std::_Vector_base.6", ptr %5, i32 0, i32 0
  %7 = getelementptr inbounds nuw %"struct.std::_Vector_base<double, std::allocator<double>>::_Vector_impl_data", ptr %6, i32 0, i32 0
  %8 = load ptr, ptr %7, align 8, !tbaa !152
  %9 = load i64, ptr %4, align 8, !tbaa !132
  %10 = getelementptr inbounds nuw double, ptr %8, i64 %9
  ret ptr %10
}

; Function Attrs: noinline norecurse nounwind uwtable
define internal void @_ZN8LightGBM4Tree7AddBiasEd.omp_outlined(ptr noalias noundef %0, ptr noalias noundef %1, ptr noundef %2, ptr noundef nonnull align 8 dereferenceable(8) %3) #17 {
  %5 = alloca ptr, align 8
  %6 = alloca ptr, align 8
  %7 = alloca ptr, align 8
  %8 = alloca ptr, align 8
  %9 = alloca i32, align 4
  %10 = alloca i32, align 4
  %11 = alloca i32, align 4
  %12 = alloca i32, align 4
  %13 = alloca i32, align 4
  %14 = alloca i32, align 4
  %15 = alloca i32, align 4
  %16 = alloca i32, align 4
  %17 = alloca i32, align 4
  store ptr %0, ptr %5, align 8, !tbaa !97
  store ptr %1, ptr %6, align 8, !tbaa !97
  store ptr %2, ptr %7, align 8, !tbaa !4
  store ptr %3, ptr %8, align 8, !tbaa !15
  %18 = load ptr, ptr %7, align 8, !tbaa !4
  %19 = load ptr, ptr %8, align 8, !tbaa !15
  call void @llvm.lifetime.start.p0(i64 4, ptr %9) #7
  call void @llvm.lifetime.start.p0(i64 4, ptr %10) #7
  %20 = getelementptr inbounds nuw %"class.LightGBM::Tree", ptr %18, i32 0, i32 2
  %21 = load i32, ptr %20, align 4, !tbaa !56
  %22 = sub nsw i32 %21, 1
  store i32 %22, ptr %10, align 4, !tbaa !13
  call void @llvm.lifetime.start.p0(i64 4, ptr %11) #7
  %23 = load i32, ptr %10, align 4, !tbaa !13
  %24 = sub nsw i32 %23, 0
  %25 = sdiv i32 %24, 1
  %26 = sub nsw i32 %25, 1
  store i32 %26, ptr %11, align 4, !tbaa !13
  call void @llvm.lifetime.start.p0(i64 4, ptr %12) #7
  store i32 0, ptr %12, align 4, !tbaa !13
  call void @llvm.lifetime.end.p0(i64 4, ptr %12) #7
  %27 = load i32, ptr %10, align 4, !tbaa !13
  %28 = icmp slt i32 0, %27
  br i1 %28, label %29, label %97

29:                                               ; preds = %4
  call void @llvm.lifetime.start.p0(i64 4, ptr %13) #7
  store i32 0, ptr %13, align 4, !tbaa !13
  call void @llvm.lifetime.start.p0(i64 4, ptr %14) #7
  %30 = load i32, ptr %11, align 4, !tbaa !13
  store i32 %30, ptr %14, align 4, !tbaa !13
  call void @llvm.lifetime.start.p0(i64 4, ptr %15) #7
  store i32 1, ptr %15, align 4, !tbaa !13
  call void @llvm.lifetime.start.p0(i64 4, ptr %16) #7
  store i32 0, ptr %16, align 4, !tbaa !13
  call void @llvm.lifetime.start.p0(i64 4, ptr %17) #7
  %31 = load ptr, ptr %5, align 8
  %32 = load i32, ptr %31, align 4, !tbaa !13
  call void @__kmpc_for_static_init_4(ptr @1, i32 %32, i32 33, ptr %16, ptr %13, ptr %14, ptr %15, i32 1, i32 1024)
  br label %33

33:                                               ; preds = %87, %29
  %34 = load i32, ptr %14, align 4, !tbaa !13
  %35 = load i32, ptr %11, align 4, !tbaa !13
  %36 = icmp sgt i32 %34, %35
  br i1 %36, label %37, label %39

37:                                               ; preds = %33
  %38 = load i32, ptr %11, align 4, !tbaa !13
  br label %41

39:                                               ; preds = %33
  %40 = load i32, ptr %14, align 4, !tbaa !13
  br label %41

41:                                               ; preds = %39, %37
  %42 = phi i32 [ %38, %37 ], [ %40, %39 ]
  store i32 %42, ptr %14, align 4, !tbaa !13
  %43 = load i32, ptr %13, align 4, !tbaa !13
  store i32 %43, ptr %9, align 4, !tbaa !13
  %44 = load i32, ptr %9, align 4, !tbaa !13
  %45 = load i32, ptr %14, align 4, !tbaa !13
  %46 = icmp sle i32 %44, %45
  br i1 %46, label %48, label %47

47:                                               ; preds = %41
  br label %94

48:                                               ; preds = %41
  br label %49

49:                                               ; preds = %83, %48
  %50 = load i32, ptr %9, align 4, !tbaa !13
  %51 = load i32, ptr %14, align 4, !tbaa !13
  %52 = icmp sle i32 %50, %51
  br i1 %52, label %54, label %53

53:                                               ; preds = %49
  br label %86

54:                                               ; preds = %49
  %55 = load i32, ptr %9, align 4, !tbaa !13
  %56 = mul nsw i32 %55, 1
  %57 = add nsw i32 0, %56
  store i32 %57, ptr %17, align 4, !tbaa !13
  %58 = getelementptr inbounds nuw %"class.LightGBM::Tree", ptr %18, i32 0, i32 17
  %59 = load i32, ptr %17, align 4, !tbaa !13
  %60 = sext i32 %59 to i64
  %61 = call noundef nonnull align 8 dereferenceable(8) ptr @_ZNSt6vectorIdSaIdEEixEm(ptr noundef nonnull align 8 dereferenceable(24) %58, i64 noundef %60) #7
  %62 = load double, ptr %61, align 8, !tbaa !57
  %63 = load double, ptr %19, align 8, !tbaa !57
  %64 = fadd double %62, %63
  %65 = call noundef double @_ZN8LightGBM4Tree16MaybeRoundToZeroEd(double noundef %64)
  %66 = getelementptr inbounds nuw %"class.LightGBM::Tree", ptr %18, i32 0, i32 17
  %67 = load i32, ptr %17, align 4, !tbaa !13
  %68 = sext i32 %67 to i64
  %69 = call noundef nonnull align 8 dereferenceable(8) ptr @_ZNSt6vectorIdSaIdEEixEm(ptr noundef nonnull align 8 dereferenceable(24) %66, i64 noundef %68) #7
  store double %65, ptr %69, align 8, !tbaa !57
  %70 = getelementptr inbounds nuw %"class.LightGBM::Tree", ptr %18, i32 0, i32 20
  %71 = load i32, ptr %17, align 4, !tbaa !13
  %72 = sext i32 %71 to i64
  %73 = call noundef nonnull align 8 dereferenceable(8) ptr @_ZNSt6vectorIdSaIdEEixEm(ptr noundef nonnull align 8 dereferenceable(24) %70, i64 noundef %72) #7
  %74 = load double, ptr %73, align 8, !tbaa !57
  %75 = load double, ptr %19, align 8, !tbaa !57
  %76 = fadd double %74, %75
  %77 = call noundef double @_ZN8LightGBM4Tree16MaybeRoundToZeroEd(double noundef %76)
  %78 = getelementptr inbounds nuw %"class.LightGBM::Tree", ptr %18, i32 0, i32 20
  %79 = load i32, ptr %17, align 4, !tbaa !13
  %80 = sext i32 %79 to i64
  %81 = call noundef nonnull align 8 dereferenceable(8) ptr @_ZNSt6vectorIdSaIdEEixEm(ptr noundef nonnull align 8 dereferenceable(24) %78, i64 noundef %80) #7
  store double %77, ptr %81, align 8, !tbaa !57
  br label %82

82:                                               ; preds = %54
  br label %83

83:                                               ; preds = %82
  %84 = load i32, ptr %9, align 4, !tbaa !13
  %85 = add nsw i32 %84, 1
  store i32 %85, ptr %9, align 4, !tbaa !13
  br label %49

86:                                               ; preds = %53
  br label %87

87:                                               ; preds = %86
  %88 = load i32, ptr %13, align 4, !tbaa !13
  %89 = load i32, ptr %15, align 4, !tbaa !13
  %90 = add nsw i32 %88, %89
  store i32 %90, ptr %13, align 4, !tbaa !13
  %91 = load i32, ptr %14, align 4, !tbaa !13
  %92 = load i32, ptr %15, align 4, !tbaa !13
  %93 = add nsw i32 %91, %92
  store i32 %93, ptr %14, align 4, !tbaa !13
  br label %33

94:                                               ; preds = %47
  %95 = load ptr, ptr %5, align 8
  %96 = load i32, ptr %95, align 4, !tbaa !13
  call void @__kmpc_for_static_fini(ptr @1, i32 %96)
  call void @llvm.lifetime.end.p0(i64 4, ptr %17) #7
  call void @llvm.lifetime.end.p0(i64 4, ptr %16) #7
  call void @llvm.lifetime.end.p0(i64 4, ptr %15) #7
  call void @llvm.lifetime.end.p0(i64 4, ptr %14) #7
  call void @llvm.lifetime.end.p0(i64 4, ptr %13) #7
  br label %97

97:                                               ; preds = %94, %4
  call void @llvm.lifetime.end.p0(i64 4, ptr %11) #7
  call void @llvm.lifetime.end.p0(i64 4, ptr %10) #7
  call void @llvm.lifetime.end.p0(i64 4, ptr %9) #7
  ret void
}