; Function Attrs: noinline norecurse nounwind uwtable
define internal void @_ZN8LightGBM4Tree7AddBiasEd.omp_outlined(ptr noalias noundef readonly captures(none) %0, ptr noalias readnone captures(none) %1, ptr noundef readonly captures(none) %2, ptr noundef nonnull readonly align 8 captures(none) dereferenceable(8) %3) #15 {
  %5 = alloca i32, align 4
  %6 = alloca i32, align 4
  %7 = alloca i32, align 4
  %8 = alloca i32, align 4
  %9 = getelementptr inbounds nuw i8, ptr %2, i64 12
  %10 = load i32, ptr %9, align 4, !tbaa !130
  %11 = add nsw i32 %10, -2
  %12 = icmp sgt i32 %10, 1
  br i1 %12, label %13, label %44

13:                                               ; preds = %4
  call void @llvm.lifetime.start.p0(i64 4, ptr nonnull %5) #16
  store i32 0, ptr %5, align 4, !tbaa !36
  call void @llvm.lifetime.start.p0(i64 4, ptr nonnull %6) #16
  store i32 %11, ptr %6, align 4, !tbaa !36
  call void @llvm.lifetime.start.p0(i64 4, ptr nonnull %7) #16
  store i32 1, ptr %7, align 4, !tbaa !36
  call void @llvm.lifetime.start.p0(i64 4, ptr nonnull %8) #16
  store i32 0, ptr %8, align 4, !tbaa !36
  %14 = load i32, ptr %0, align 4, !tbaa !36
  call void @__kmpc_for_static_init_4(ptr nonnull @1, i32 %14, i32 33, ptr nonnull %8, ptr nonnull %5, ptr nonnull %6, ptr nonnull %7, i32 1, i32 1024)
  %.promoted = load i32, ptr %6, align 4, !tbaa !36
  %.promoted19 = load i32, ptr %5, align 4, !tbaa !36
  %15 = call i32 @llvm.smin.i32(i32 %.promoted, i32 %11)
  %.not20 = icmp sgt i32 %.promoted19, %15
  br i1 %.not20, label %43, label %.preheader.lr.ph

.preheader.lr.ph:                                 ; preds = %13
  %16 = getelementptr inbounds nuw i8, ptr %2, i64 336
  %17 = load ptr, ptr %16, align 8, !tbaa !18
  %18 = getelementptr inbounds nuw i8, ptr %2, i64 408
  %19 = load ptr, ptr %18, align 8, !tbaa !18
  %20 = load i32, ptr %7, align 4, !tbaa !36
  %21 = sext i32 %.promoted19 to i64
  %22 = sext i32 %20 to i64
  br label %.preheader

.preheader:                                       ; preds = %.preheader.lr.ph, %40
  %indvars.iv = phi i64 [ %21, %.preheader.lr.ph ], [ %indvars.iv.next, %40 ]
  %23 = phi i32 [ %15, %.preheader.lr.ph ], [ %42, %40 ]
  %24 = sext i32 %23 to i64
  br label %25

25:                                               ; preds = %.preheader, %25
  %indvars.iv24 = phi i64 [ %indvars.iv, %.preheader ], [ %indvars.iv.next25, %25 ]
  %26 = getelementptr inbounds nuw double, ptr %17, i64 %indvars.iv24
  %27 = load double, ptr %26, align 8, !tbaa !66
  %28 = load double, ptr %3, align 8, !tbaa !66
  %29 = fadd double %27, %28
  %30 = call double @llvm.fabs.f64(double %29)
  %31 = fcmp ole double %30, 0x38AA95A5C0000000
  %32 = select i1 %31, double 0.000000e+00, double %29
  store double %32, ptr %26, align 8, !tbaa !66
  %33 = getelementptr inbounds nuw double, ptr %19, i64 %indvars.iv24
  %34 = load double, ptr %33, align 8, !tbaa !66
  %35 = load double, ptr %3, align 8, !tbaa !66
  %36 = fadd double %34, %35
  %37 = call double @llvm.fabs.f64(double %36)
  %38 = fcmp ole double %37, 0x38AA95A5C0000000
  %39 = select i1 %38, double 0.000000e+00, double %36
  store double %39, ptr %33, align 8, !tbaa !66
  %indvars.iv.next25 = add nsw i64 %indvars.iv24, 1
  %.not17.not = icmp slt i64 %indvars.iv24, %24
  br i1 %.not17.not, label %25, label %40

40:                                               ; preds = %25
  %indvars.iv.next = add i64 %indvars.iv, %22
  %indvars = trunc i64 %indvars.iv.next to i32
  %41 = add nsw i32 %20, %23
  %42 = call i32 @llvm.smin.i32(i32 %41, i32 %11)
  %.not = icmp slt i32 %42, %indvars
  br i1 %.not, label %._crit_edge, label %.preheader

._crit_edge:                                      ; preds = %40
  store i32 %indvars, ptr %5, align 4, !tbaa !36
  br label %43

43:                                               ; preds = %._crit_edge, %13
  %.lcssa = phi i32 [ %42, %._crit_edge ], [ %15, %13 ]
  store i32 %.lcssa, ptr %6, align 4, !tbaa !36
  call void @__kmpc_for_static_fini(ptr nonnull @1, i32 %14)
  call void @llvm.lifetime.end.p0(i64 4, ptr nonnull %8) #16
  call void @llvm.lifetime.end.p0(i64 4, ptr nonnull %7) #16
  call void @llvm.lifetime.end.p0(i64 4, ptr nonnull %6) #16
  call void @llvm.lifetime.end.p0(i64 4, ptr nonnull %5) #16
  br label %44

44:                                               ; preds = %43, %4
  ret void
}